; Function Attrs: mustprogress uwtable
define void @_ZN3net30QuicMultipathSentPacketManager21SetHandshakeConfirmedEv(ptr noundef nonnull readonly align 8 captures(none) dereferenceable(40) %0) unnamed_addr #0 align 2 {
  %2 = tail call noundef ptr @_ZNK3net30QuicMultipathSentPacketManager38MaybeGetSentPacketManagerForActivePathEh(ptr noundef nonnull align 8 dereferenceable(40) %0, i8 noundef zeroext 0)
  %3 = icmp eq ptr %2, null
  br i1 %3, label %4, label %5

4:                                                ; preds = %1
  tail call void @_ZN3net30QuicMultipathSentPacketManager24OnUnrecoverablePathErrorEh(ptr noundef nonnull align 8 dereferenceable(40) %0, i8 noundef zeroext 0)
  br label %9

5:                                                ; preds = %1
  %6 = load ptr, ptr %2, align 8, !tbaa !3
  %7 = getelementptr inbounds nuw i8, ptr %6, i64 48
  %8 = load ptr, ptr %7, align 8
  tail call void %8(ptr noundef nonnull align 8 dereferenceable(8) %2)
  br label %9

9:                                                ; preds = %5, %4
  ret void
}